; Function Attrs: nounwind uwtable
define ptr @l_Lake_withLockFile___rarg___lambda__2(ptr noundef %0, ptr noundef %1, ptr noundef %2) local_unnamed_addr #0 {
  %4 = ptrtoint ptr %1 to i64
  %5 = and i64 %4, 1
  %.not.i15 = icmp eq i64 %5, 0
  br i1 %.not.i15, label %lean_obj_tag.exit.thread, label %lean_obj_tag.exit

lean_obj_tag.exit:                                ; preds = %3
  %6 = and i64 %4, 8589934590
  %7 = icmp eq i64 %6, 22
  br i1 %7, label %lean_dec.exit, label %21

lean_obj_tag.exit.thread:                         ; preds = %3
  %8 = getelementptr i8, ptr %1, i64 4
  %.val.i = load i32, ptr %8, align 4
  %.mask = and i32 %.val.i, -16777216
  %9 = icmp eq i32 %.mask, 184549376
  br i1 %9, label %.thread, label %21

.thread:                                          ; preds = %lean_obj_tag.exit.thread
  %10 = load i32, ptr %1, align 4, !tbaa !8
  %11 = icmp sgt i32 %10, 1
  br i1 %11, label %12, label %14, !prof !11

12:                                               ; preds = %.thread
  %13 = add nsw i32 %10, -1
  store i32 %13, ptr %1, align 4, !tbaa !8
  br label %lean_dec.exit

14:                                               ; preds = %.thread
  %.not.i = icmp eq i32 %10, 0
  br i1 %.not.i, label %lean_dec.exit, label %15

15:                                               ; preds = %14
  tail call void @lean_dec_ref_cold(ptr noundef nonnull %1) #4
  br label %lean_dec.exit

lean_dec.exit:                                    ; preds = %lean_obj_tag.exit, %15, %14, %12
  %16 = load ptr, ptr @l_Lake_withLockFile___rarg___lambda__2___closed__1, align 8, !tbaa !4
  %17 = tail call ptr @lean_string_append(ptr noundef %16, ptr noundef %0) #4
  %18 = load ptr, ptr @l_Lake_withLockFile___rarg___lambda__2___closed__2, align 8, !tbaa !4
  %19 = tail call ptr @lean_string_append(ptr noundef %17, ptr noundef %18) #4
  %20 = tail call ptr @l_IO_eprintln___at___private_Init_System_IO_0__IO_eprintlnAux___spec__1(ptr noundef %19, ptr noundef %2) #4
  br label %28

21:                                               ; preds = %lean_obj_tag.exit.thread, %lean_obj_tag.exit
  tail call void @lean_inc_heartbeat() #4
  %22 = tail call noalias ptr @mi_malloc_small(i64 noundef 24) #4
  %23 = icmp eq ptr %22, null
  br i1 %23, label %24, label %lean_alloc_ctor.exit

24:                                               ; preds = %21
  tail call void @lean_internal_panic_out_of_memory() #5
  unreachable

lean_alloc_ctor.exit:                             ; preds = %21
  %25 = getelementptr inbounds nuw i8, ptr %22, i64 4
  store i32 1, ptr %22, align 4, !tbaa !8
  store i32 16908312, ptr %25, align 4
  %26 = getelementptr inbounds nuw i8, ptr %22, i64 8
  store ptr %1, ptr %26, align 8, !tbaa !4
  %27 = getelementptr inbounds nuw i8, ptr %22, i64 16
  store ptr %2, ptr %27, align 8, !tbaa !4
  br label %28

28:                                               ; preds = %lean_alloc_ctor.exit, %lean_dec.exit
  %.0 = phi ptr [ %20, %lean_dec.exit ], [ %22, %lean_alloc_ctor.exit ]
  ret ptr %.0
}